; Function Attrs: nounwind uwtable
define noalias noundef nonnull ptr @l_Lean_withTraceNode___at_Lean_compileDecls_doCompile___spec__2___lambda__2(ptr noundef %0, i8 noundef zeroext %1, ptr noundef %2, ptr noundef %3, ptr noundef %4, ptr noundef %5, i8 noundef zeroext %6, double noundef %7, double noundef %8, ptr noundef %9, ptr noundef %10, ptr noundef %11, ptr noundef %12) local_unnamed_addr #1 {
  %14 = icmp eq i8 %6, 0
  br i1 %14, label %15, label %20

15:                                               ; preds = %13
  %16 = load double, ptr @l_Lean_withTraceNode___at_Lean_Core_wrapAsyncAsSnapshot___spec__1___lambda__2___closed__1, align 8, !tbaa !21
  tail call void @lean_inc_heartbeat() #7
  %17 = tail call noalias ptr @mi_malloc_small(i64 noundef 48) #7
  %18 = icmp eq ptr %17, null
  br i1 %18, label %19, label %lean_alloc_ctor.exit

19:                                               ; preds = %15
  tail call void @lean_internal_panic_out_of_memory() #8
  unreachable

20:                                               ; preds = %13
  tail call void @lean_inc_heartbeat() #7
  %21 = tail call noalias ptr @mi_malloc_small(i64 noundef 48) #7
  %22 = icmp eq ptr %21, null
  br i1 %22, label %23, label %lean_alloc_ctor.exit

23:                                               ; preds = %20
  tail call void @lean_internal_panic_out_of_memory() #8
  unreachable

lean_alloc_ctor.exit:                             ; preds = %20, %15
  %.sink58 = phi ptr [ %17, %15 ], [ %21, %20 ]
  %.sink47 = phi double [ %16, %15 ], [ %7, %20 ]
  %.sink44 = phi double [ %16, %15 ], [ %8, %20 ]
  %24 = getelementptr inbounds nuw i8, ptr %.sink58, i64 4
  %25 = getelementptr inbounds nuw i8, ptr %.sink58, i64 40
  store i64 0, ptr %25, align 8, !tbaa !12
  store i32 1, ptr %.sink58, align 4, !tbaa !4
  store i32 131120, ptr %24, align 4
  %26 = getelementptr inbounds nuw i8, ptr %.sink58, i64 8
  store ptr %0, ptr %26, align 8, !tbaa !9
  %27 = getelementptr inbounds nuw i8, ptr %.sink58, i64 16
  store ptr %2, ptr %27, align 8, !tbaa !9
  %28 = getelementptr inbounds nuw i8, ptr %.sink58, i64 24
  store double %.sink47, ptr %28, align 8, !tbaa !21
  %29 = getelementptr inbounds nuw i8, ptr %.sink58, i64 32
  store double %.sink44, ptr %29, align 8, !tbaa !21
  store i8 %1, ptr %25, align 1, !tbaa !17
  %30 = tail call ptr @l_Lean_withTraceNode___at_Lean_compileDecls_doCompile___spec__2___lambda__1(ptr noundef %3, ptr noundef %4, ptr noundef %9, ptr noundef %5, ptr noundef nonnull %.sink58, ptr nonnull poison, ptr noundef %10, ptr noundef %11, ptr noundef %12)
  ret ptr %30
}